(dp0
S'layer6-neuron16-batch32'
p1
(lp2
F103.46593284606934
aF102.79097819328308
aF103.46260595321655
aF102.797287940979
aF103.27587604522705
asS'layer10-neuron16-batch1024'
p3
(lp4
F5.529698848724365
aF5.517899036407471
aF5.5631139278411865
aF5.55877685546875
aF5.5480499267578125
asS'layer6-neuron16-batch1024'
p5
(lp6
F3.9286270141601562
aF3.9549169540405273
aF3.945363998413086
aF4.002676010131836
aF3.925342082977295
asS'layer6-neuron1024-batch32'
p7
(lp8
F113.81756806373596
aF113.60280203819275
aF113.671462059021
aF114.10317707061768
aF112.3699369430542
asS'layer6-neuron1024-batch1024'
p9
(lp10
F4.515237092971802
aF4.542742013931274
aF4.512067079544067
aF4.540207147598267
aF4.591763973236084
asS'layer2-neuron16-batch1024'
p11
(lp12
F2.1596949100494385
aF2.133631944656372
aF2.151616096496582
aF2.1976799964904785
aF2.177621841430664
asS'layer2-neuron1024-batch32'
p13
(lp14
F52.05687689781189
aF51.76987099647522
aF52.13886499404907
aF51.721928119659424
aF51.905500173568726
asS'layer10-neuron1024-batch1024'
p15
(lp16
F8.344685077667236
aF8.34857988357544
aF8.356658935546875
aF8.329450130462646
aF8.300312995910645
asS'layer10-neuron1024-batch32'
p17
(lp18
F203.20317697525024
aF205.07304787635803
aF206.39757299423218
aF205.8006911277771
aF206.57949090003967
asS'layer2-neuron1024-batch1024'
p19
(lp20
F2.5028438568115234
aF2.5289509296417236
aF2.493014097213745
aF2.5117530822753906
aF2.509694814682007
asS'layer10-neuron16-batch32'
p21
(lp22
F154.59593105316162
aF154.47761297225952
aF155.00891494750977
aF155.27684092521667
aF153.5493130683899
asS'layer2-neuron16-batch32'
p23
(lp24
F51.73646903038025
aF50.337388038635254
aF49.97825908660889
aF49.816821813583374
aF49.89618110656738
as.